; Function Attrs: mustprogress nounwind uwtable
define hidden i64 @_ZN12BarrierSetC114atomic_xchg_atER9LIRAccessR7LIRItem(ptr noundef nonnull align 8 dereferenceable(8) %0, ptr noundef nonnull align 8 dereferenceable(80) %1, ptr noundef nonnull align 8 dereferenceable(40) %2) unnamed_addr #0 align 2 {
  %4 = getelementptr inbounds i8, ptr %1, i64 16
  %5 = load ptr, ptr %4, align 8
  tail call void @_ZN7LIRItem9load_itemEv(ptr noundef nonnull align 8 dereferenceable(40) %5) #5
  %6 = getelementptr inbounds i8, ptr %1, i64 32
  %7 = load ptr, ptr %6, align 8
  tail call void @_ZN7LIRItem16load_nonconstantEv(ptr noundef nonnull align 8 dereferenceable(40) %7) #5
  %8 = load ptr, ptr %0, align 8
  %9 = load ptr, ptr %8, align 8
  %10 = tail call i64 %9(ptr noundef nonnull align 8 dereferenceable(8) %0, ptr noundef nonnull align 8 dereferenceable(80) %1, i1 noundef zeroext true) #5
  %11 = getelementptr inbounds i8, ptr %1, i64 56
  store i64 %10, ptr %11, align 8
  %12 = load ptr, ptr %0, align 8
  %13 = getelementptr inbounds i8, ptr %12, i64 40
  %14 = load ptr, ptr %13, align 8
  %15 = tail call i64 %14(ptr noundef nonnull align 8 dereferenceable(8) %0, ptr noundef nonnull align 8 dereferenceable(80) %1, ptr noundef nonnull align 8 dereferenceable(40) %2) #5
  ret i64 %15
}